target datalayout = "e-m:e-p270:32:32-p271:32:32-p272:64:64-i64:64-i128:128-f80:128-n8:16:32:64-S128"
target triple = "x86_64-pc-linux-gnu"

%struct.cl_fmap = type { ptr, ptr, ptr, i64, i64, i64, i64, i8, i8, i8, i64, i64, i64, i64, ptr, ptr, ptr, ptr, ptr, ptr, ptr, i8, [16 x i8], i8, [20 x i8], i8, [32 x i8], ptr, ptr }

@.str.19 = private unnamed_addr constant [44 x i8] c"fmap_fd: Attempted to get fd for NULL fmap\0A\00", align 1

; Function Attrs: nounwind uwtable
define i32 @fmap_fd(ptr noundef %0) #0 {
  %2 = alloca i32, align 4
  %3 = alloca ptr, align 8
  %4 = alloca i32, align 4
  store ptr %0, ptr %3, align 8
  %5 = load ptr, ptr %3, align 8
  %6 = icmp eq ptr null, %5
  br i1 %6, label %7, label %8

7:                                                ; preds = %1
  call void (ptr, ...) @cli_errmsg(ptr noundef @.str.19)
  store i32 -1, ptr %2, align 4
  br label %23

8:                                                ; preds = %1
  %9 = load ptr, ptr %3, align 8
  %10 = getelementptr inbounds %struct.cl_fmap, ptr %9, i32 0, i32 9
  %11 = load i8, ptr %10, align 2
  %12 = trunc i8 %11 to i1
  br i1 %12, label %14, label %13

13:                                               ; preds = %8
  store i32 -1, ptr %2, align 4
  br label %23

14:                                               ; preds = %8
  %15 = load ptr, ptr %3, align 8
  %16 = getelementptr inbounds %struct.cl_fmap, ptr %15, i32 0, i32 0
  %17 = load ptr, ptr %16, align 8
  %18 = ptrtoint ptr %17 to i64
  %19 = trunc i64 %18 to i32
  store i32 %19, ptr %4, align 4
  %20 = load i32, ptr %4, align 4
  %21 = call i64 @lseek(i32 noundef %20, i64 noundef 0, i32 noundef 0) #8
  %22 = load i32, ptr %4, align 4
  store i32 %22, ptr %2, align 4
  br label %23

23:                                               ; preds = %14, %13, %7
  %24 = load i32, ptr %2, align 4
  ret i32 %24
}