; Function Attrs: nounwind uwtable
define noundef i32 @fmap_fd(ptr noundef readonly %0) local_unnamed_addr #0 {
  %2 = icmp eq ptr %0, null
  br i1 %2, label %3, label %4

3:                                                ; preds = %1
  tail call void (ptr, ...) @cli_errmsg(ptr noundef nonnull @.str.19) #18
  br label %13

4:                                                ; preds = %1
  %5 = getelementptr inbounds i8, ptr %0, i64 58
  %6 = load i8, ptr %5, align 2
  %7 = trunc i8 %6 to i1
  br i1 %7, label %8, label %13

8:                                                ; preds = %4
  %9 = load ptr, ptr %0, align 8
  %10 = ptrtoint ptr %9 to i64
  %11 = trunc i64 %10 to i32
  %12 = tail call i64 @lseek(i32 noundef %11, i64 noundef 0, i32 noundef 0) #18
  br label %13

13:                                               ; preds = %4, %8, %3
  %.0 = phi i32 [ -1, %3 ], [ %11, %8 ], [ -1, %4 ]
  ret i32 %.0
}